; ModuleID = '39/1931.c'
source_filename = "39/1931.c"
target datalayout = "e-m:e-p270:32:32-p271:32:32-p272:64:64-i64:64-f80:128-n8:16:32:64-S128"
target triple = "x86_64-pc-linux-gnu"

%struct.student = type { [21 x i8], i32, i32, i8, i8, i32 }

@.str = private unnamed_addr constant [4 x i8] c"%d\0A\00", align 1
@.str.1 = private unnamed_addr constant [18 x i8] c"%s %d %d %c %c %d\00", align 1
@.str.2 = private unnamed_addr constant [9 x i8] c"%s\0A%d\0A%d\00", align 1

; Function Attrs: noinline nounwind uwtable
define dso_local void @main() #0 {
  %1 = alloca [100 x %struct.student], align 16
  %2 = alloca %struct.student*, align 8
  %3 = alloca %struct.student*, align 8
  %4 = alloca i32, align 4
  %5 = alloca i32, align 4
  %6 = alloca i32, align 4
  %7 = alloca i32, align 4
  %8 = alloca i32, align 4
  store %struct.student* null, %struct.student** %3, align 8
  store i32 0, i32* %4, align 4
  store i32 0, i32* %6, align 4
  store i32 0, i32* %7, align 4
  store i32 0, i32* %8, align 4
  %9 = getelementptr inbounds [100 x %struct.student], [100 x %struct.student]* %1, i64 0, i64 0
  store %struct.student* %9, %struct.student** %2, align 8
  %10 = call i32 (i8*, ...) @__isoc99_scanf(i8* getelementptr inbounds ([4 x i8], [4 x i8]* @.str, i64 0, i64 0), i32* %5)
  %11 = load i32, i32* %4, align 4
  br label %12

12:                                               ; preds = %45, %0
  %13 = load i32, i32* %4, align 4
  %14 = load i32, i32* %5, align 4
  %15 = icmp slt i32 %13, %14
  br i1 %15, label %16, label %48

16:                                               ; preds = %12
  %17 = load %struct.student*, %struct.student** %2, align 8
  %18 = getelementptr inbounds %struct.student, %struct.student* %17, i32 0, i32 0
  %19 = getelementptr inbounds [21 x i8], [21 x i8]* %18, i64 0, i64 0
  %20 = load %struct.student*, %struct.student** %2, align 8
  %21 = getelementptr inbounds %struct.student, %struct.student* %20, i32 0, i32 1
  %22 = load %struct.student*, %struct.student** %2, align 8
  %23 = getelementptr inbounds %struct.student, %struct.student* %22, i32 0, i32 2
  %24 = load %struct.student*, %struct.student** %2, align 8
  %25 = getelementptr inbounds %struct.student, %struct.student* %24, i32 0, i32 3
  %26 = load %struct.student*, %struct.student** %2, align 8
  %27 = getelementptr inbounds %struct.student, %struct.student* %26, i32 0, i32 4
  %28 = load %struct.student*, %struct.student** %2, align 8
  %29 = getelementptr inbounds %struct.student, %struct.student* %28, i32 0, i32 5
  %30 = call i32 (i8*, ...) @__isoc99_scanf(i8* getelementptr inbounds ([18 x i8], [18 x i8]* @.str.1, i64 0, i64 0), i8* %19, i32* %21, i32* %23, i8* %25, i8* %27, i32* %29)
  %31 = load %struct.student*, %struct.student** %2, align 8
  %32 = getelementptr inbounds %struct.student, %struct.student* %31, i32 1
  store %struct.student* %32, %struct.student** %2, align 8
  %33 = call i32 @process(%struct.student* %31)
  store i32 %33, i32* %7, align 4
  %34 = load i32, i32* %7, align 4
  %35 = load i32, i32* %8, align 4
  %36 = icmp sgt i32 %34, %35
  br i1 %36, label %37, label %41

37:                                               ; preds = %16
  %38 = load i32, i32* %7, align 4
  store i32 %38, i32* %8, align 4
  %39 = load %struct.student*, %struct.student** %2, align 8
  %40 = getelementptr inbounds %struct.student, %struct.student* %39, i64 -1
  store %struct.student* %40, %struct.student** %3, align 8
  br label %41

41:                                               ; preds = %37, %16
  %42 = load i32, i32* %7, align 4
  %43 = load i32, i32* %6, align 4
  %44 = add nsw i32 %43, %42
  store i32 %44, i32* %6, align 4
  br label %45

45:                                               ; preds = %41
  %46 = load i32, i32* %4, align 4
  %47 = add nsw i32 %46, 1
  store i32 %47, i32* %4, align 4
  br label %12

48:                                               ; preds = %12
  %49 = load %struct.student*, %struct.student** %3, align 8
  %50 = getelementptr inbounds %struct.student, %struct.student* %49, i32 0, i32 0
  %51 = getelementptr inbounds [21 x i8], [21 x i8]* %50, i64 0, i64 0
  %52 = load i32, i32* %8, align 4
  %53 = load i32, i32* %6, align 4
  %54 = call i32 (i8*, ...) @printf(i8* getelementptr inbounds ([9 x i8], [9 x i8]* @.str.2, i64 0, i64 0), i8* %51, i32 %52, i32 %53)
  ret void
}

declare dso_local i32 @__isoc99_scanf(i8*, ...) #1

; Function Attrs: noinline nounwind uwtable
define dso_local i32 @process(%struct.student* %0) #0 {
  %2 = alloca %struct.student*, align 8
  %3 = alloca i32, align 4
  store %struct.student* %0, %struct.student** %2, align 8
  store i32 0, i32* %3, align 4
  %4 = load %struct.student*, %struct.student** %2, align 8
  %5 = getelementptr inbounds %struct.student, %struct.student* %4, i32 0, i32 1
  %6 = load i32, i32* %5, align 4
  %7 = icmp sgt i32 %6, 80
  br i1 %7, label %8, label %16

8:                                                ; preds = %1
  %9 = load %struct.student*, %struct.student** %2, align 8
  %10 = getelementptr inbounds %struct.student, %struct.student* %9, i32 0, i32 5
  %11 = load i32, i32* %10, align 4
  %12 = icmp sge i32 %11, 1
  br i1 %12, label %13, label %16

13:                                               ; preds = %8
  %14 = load i32, i32* %3, align 4
  %15 = add nsw i32 %14, 8000
  store i32 %15, i32* %3, align 4
  br label %16

16:                                               ; preds = %13, %8, %1
  %17 = load %struct.student*, %struct.student** %2, align 8
  %18 = getelementptr inbounds %struct.student, %struct.student* %17, i32 0, i32 1
  %19 = load i32, i32* %18, align 4
  %20 = icmp sgt i32 %19, 85
  br i1 %20, label %21, label %29

21:                                               ; preds = %16
  %22 = load %struct.student*, %struct.student** %2, align 8
  %23 = getelementptr inbounds %struct.student, %struct.student* %22, i32 0, i32 2
  %24 = load i32, i32* %23, align 4
  %25 = icmp sgt i32 %24, 80
  br i1 %25, label %26, label %29

26:                                               ; preds = %21
  %27 = load i32, i32* %3, align 4
  %28 = add nsw i32 %27, 4000
  store i32 %28, i32* %3, align 4
  br label %29

29:                                               ; preds = %26, %21, %16
  %30 = load %struct.student*, %struct.student** %2, align 8
  %31 = getelementptr inbounds %struct.student, %struct.student* %30, i32 0, i32 1
  %32 = load i32, i32* %31, align 4
  %33 = icmp sgt i32 %32, 90
  br i1 %33, label %34, label %37

34:                                               ; preds = %29
  %35 = load i32, i32* %3, align 4
  %36 = add nsw i32 %35, 2000
  store i32 %36, i32* %3, align 4
  br label %37

37:                                               ; preds = %34, %29
  %38 = load %struct.student*, %struct.student** %2, align 8
  %39 = getelementptr inbounds %struct.student, %struct.student* %38, i32 0, i32 1
  %40 = load i32, i32* %39, align 4
  %41 = icmp sgt i32 %40, 85
  br i1 %41, label %42, label %51

42:                                               ; preds = %37
  %43 = load %struct.student*, %struct.student** %2, align 8
  %44 = getelementptr inbounds %struct.student, %struct.student* %43, i32 0, i32 4
  %45 = load i8, i8* %44, align 1
  %46 = sext i8 %45 to i32
  %47 = icmp eq i32 %46, 89
  br i1 %47, label %48, label %51

48:                                               ; preds = %42
  %49 = load i32, i32* %3, align 4
  %50 = add nsw i32 %49, 1000
  store i32 %50, i32* %3, align 4
  br label %51

51:                                               ; preds = %48, %42, %37
  %52 = load %struct.student*, %struct.student** %2, align 8
  %53 = getelementptr inbounds %struct.student, %struct.student* %52, i32 0, i32 2
  %54 = load i32, i32* %53, align 4
  %55 = icmp sgt i32 %54, 80
  br i1 %55, label %56, label %65

56:                                               ; preds = %51
  %57 = load %struct.student*, %struct.student** %2, align 8
  %58 = getelementptr inbounds %struct.student, %struct.student* %57, i32 0, i32 3
  %59 = load i8, i8* %58, align 4
  %60 = sext i8 %59 to i32
  %61 = icmp eq i32 %60, 89
  br i1 %61, label %62, label %65

62:                                               ; preds = %56
  %63 = load i32, i32* %3, align 4
  %64 = add nsw i32 %63, 850
  store i32 %64, i32* %3, align 4
  br label %65

65:                                               ; preds = %62, %56, %51
  %66 = load i32, i32* %3, align 4
  ret i32 %66
}

declare dso_local i32 @printf(i8*, ...) #1


!llvm.module.flags = !{!0}
!llvm.ident = !{!1}

!0 = !{i32 1, !"wchar_size", i32 4}
!1 = !{!"clang version 10.0.0-4ubuntu1 "}
